; Function Attrs: nounwind uwtable
define noalias noundef nonnull ptr @l_Std_Time_PlainDate_subYearsRollOver(ptr noundef %0, ptr noundef %1) local_unnamed_addr #0 {
  %3 = load ptr, ptr @l_Std_Time_PlainDate_ofDaysSinceUNIXEpoch___closed__11, align 8, !tbaa !4
  %4 = ptrtoint ptr %1 to i64
  %5 = and i64 %4, 1
  %.not.i11 = icmp eq i64 %5, 0
  br i1 %.not.i11, label %.critedge.i, label %6, !prof !8

6:                                                ; preds = %2
  %7 = ptrtoint ptr %3 to i64
  %8 = and i64 %7, 1
  %.not7.i = icmp eq i64 %8, 0
  br i1 %.not7.i, label %.critedge.i, label %9, !prof !8

9:                                                ; preds = %6
  %10 = shl i64 %4, 31
  %11 = ashr i64 %10, 32
  %12 = shl i64 %7, 31
  %13 = ashr i64 %12, 32
  %14 = mul nsw i64 %13, %11
  %15 = add nsw i64 %14, 2147483648
  %16 = icmp ult i64 %15, 4294967296
  br i1 %16, label %17, label %22, !prof !14

17:                                               ; preds = %9
  %18 = shl nsw i64 %14, 1
  %19 = and i64 %18, 8589934590
  %20 = or disjoint i64 %19, 1
  %21 = inttoptr i64 %20 to ptr
  br label %lean_int_mul.exit

22:                                               ; preds = %9
  %23 = tail call ptr @lean_big_int64_to_int(i64 noundef range(i64 -4611686016279904256, 4611686018427387905) %14) #5
  br label %lean_int_mul.exit

.critedge.i:                                      ; preds = %6, %2
  %24 = tail call ptr @lean_int_big_mul(ptr noundef %1, ptr noundef %3) #5
  br label %lean_int_mul.exit

lean_int_mul.exit:                                ; preds = %17, %22, %.critedge.i
  %.0.i = phi ptr [ %24, %.critedge.i ], [ %21, %17 ], [ %23, %22 ]
  %25 = ptrtoint ptr %.0.i to i64
  %26 = and i64 %25, 1
  %.not.i12 = icmp eq i64 %26, 0
  br i1 %.not.i12, label %40, label %27, !prof !8

27:                                               ; preds = %lean_int_mul.exit
  %28 = shl i64 %25, 31
  %29 = ashr i64 %28, 32
  %30 = sub nsw i64 0, %29
  %31 = add nsw i64 %29, 2147483647
  %32 = icmp ult i64 %31, 4294967296
  br i1 %32, label %33, label %38, !prof !14

33:                                               ; preds = %27
  %34 = shl nsw i64 %30, 1
  %35 = and i64 %34, 8589934590
  %36 = or disjoint i64 %35, 1
  %37 = inttoptr i64 %36 to ptr
  br label %lean_dec.exit8

38:                                               ; preds = %27
  %39 = tail call ptr @lean_big_int64_to_int(i64 noundef range(i64 -4611686016279904256, 4611686018427387905) %30) #5
  br label %lean_dec.exit8

40:                                               ; preds = %lean_int_mul.exit
  %41 = tail call ptr @lean_int_big_neg(ptr noundef %.0.i) #5
  %42 = load i32, ptr %.0.i, align 4, !tbaa !9
  %43 = icmp sgt i32 %42, 1
  br i1 %43, label %44, label %46, !prof !14

44:                                               ; preds = %40
  %45 = add nsw i32 %42, -1
  store i32 %45, ptr %.0.i, align 4, !tbaa !9
  br label %lean_dec.exit8

46:                                               ; preds = %40
  %.not.i = icmp eq i32 %42, 0
  br i1 %.not.i, label %lean_dec.exit8, label %47

47:                                               ; preds = %46
  tail call void @lean_dec_ref_cold(ptr noundef nonnull %.0.i) #5
  br label %lean_dec.exit8

lean_dec.exit8:                                   ; preds = %38, %33, %47, %46, %44
  %.0.i1315 = phi ptr [ %41, %44 ], [ %41, %46 ], [ %41, %47 ], [ %39, %38 ], [ %37, %33 ]
  %48 = tail call ptr @l_Std_Time_PlainDate_addMonthsRollOver(ptr noundef %0, ptr noundef %.0.i1315)
  %49 = ptrtoint ptr %.0.i1315 to i64
  %50 = and i64 %49, 1
  %.not = icmp eq i64 %50, 0
  br i1 %.not, label %51, label %lean_dec.exit

51:                                               ; preds = %lean_dec.exit8
  %52 = load i32, ptr %.0.i1315, align 4, !tbaa !9
  %53 = icmp sgt i32 %52, 1
  br i1 %53, label %54, label %56, !prof !14

54:                                               ; preds = %51
  %55 = add nsw i32 %52, -1
  store i32 %55, ptr %.0.i1315, align 4, !tbaa !9
  br label %lean_dec.exit

56:                                               ; preds = %51
  %.not.i9 = icmp eq i32 %52, 0
  br i1 %.not.i9, label %lean_dec.exit, label %57

57:                                               ; preds = %56
  tail call void @lean_dec_ref_cold(ptr noundef nonnull %.0.i1315) #5
  br label %lean_dec.exit

lean_dec.exit:                                    ; preds = %57, %56, %54, %lean_dec.exit8
  ret ptr %48
}